
;CodeVisionAVR C Compiler V3.12 Advanced
;(C) Copyright 1998-2014 Pavel Haiduc, HP InfoTech s.r.l.
;http://www.hpinfotech.com

;Build configuration    : Debug
;Chip type              : ATmega32
;Program type           : Application
;Clock frequency        : 8.000000 MHz
;Memory model           : Small
;Optimize for           : Size
;(s)printf features     : int, width
;(s)scanf features      : int, width
;External RAM size      : 0
;Data Stack size        : 512 byte(s)
;Heap size              : 0 byte(s)
;Promote 'char' to 'int': Yes
;'char' is unsigned     : Yes
;8 bit enums            : Yes
;Global 'const' stored in FLASH: Yes
;Enhanced function parameter passing: Yes
;Enhanced core instructions: On
;Automatic register allocation for global variables: On
;Smart register allocation: On

	#define _MODEL_SMALL_

	#pragma AVRPART ADMIN PART_NAME ATmega32
	#pragma AVRPART MEMORY PROG_FLASH 32768
	#pragma AVRPART MEMORY EEPROM 1024
	#pragma AVRPART MEMORY INT_SRAM SIZE 2048
	#pragma AVRPART MEMORY INT_SRAM START_ADDR 0x60

	#define CALL_SUPPORTED 1

	.LISTMAC
	.EQU UDRE=0x5
	.EQU RXC=0x7
	.EQU USR=0xB
	.EQU UDR=0xC
	.EQU SPSR=0xE
	.EQU SPDR=0xF
	.EQU EERE=0x0
	.EQU EEWE=0x1
	.EQU EEMWE=0x2
	.EQU EECR=0x1C
	.EQU EEDR=0x1D
	.EQU EEARL=0x1E
	.EQU EEARH=0x1F
	.EQU WDTCR=0x21
	.EQU MCUCR=0x35
	.EQU GICR=0x3B
	.EQU SPL=0x3D
	.EQU SPH=0x3E
	.EQU SREG=0x3F

	.DEF R0X0=R0
	.DEF R0X1=R1
	.DEF R0X2=R2
	.DEF R0X3=R3
	.DEF R0X4=R4
	.DEF R0X5=R5
	.DEF R0X6=R6
	.DEF R0X7=R7
	.DEF R0X8=R8
	.DEF R0X9=R9
	.DEF R0XA=R10
	.DEF R0XB=R11
	.DEF R0XC=R12
	.DEF R0XD=R13
	.DEF R0XE=R14
	.DEF R0XF=R15
	.DEF R0X10=R16
	.DEF R0X11=R17
	.DEF R0X12=R18
	.DEF R0X13=R19
	.DEF R0X14=R20
	.DEF R0X15=R21
	.DEF R0X16=R22
	.DEF R0X17=R23
	.DEF R0X18=R24
	.DEF R0X19=R25
	.DEF R0X1A=R26
	.DEF R0X1B=R27
	.DEF R0X1C=R28
	.DEF R0X1D=R29
	.DEF R0X1E=R30
	.DEF R0X1F=R31

	.EQU __SRAM_START=0x0060
	.EQU __SRAM_END=0x085F
	.EQU __DSTACK_SIZE=0x0200
	.EQU __HEAP_SIZE=0x0000
	.EQU __CLEAR_SRAM_SIZE=__SRAM_END-__SRAM_START+1

	.MACRO __CPD1N
	CPI  R30,LOW(@0)
	LDI  R26,HIGH(@0)
	CPC  R31,R26
	LDI  R26,BYTE3(@0)
	CPC  R22,R26
	LDI  R26,BYTE4(@0)
	CPC  R23,R26
	.ENDM

	.MACRO __CPD2N
	CPI  R26,LOW(@0)
	LDI  R30,HIGH(@0)
	CPC  R27,R30
	LDI  R30,BYTE3(@0)
	CPC  R24,R30
	LDI  R30,BYTE4(@0)
	CPC  R25,R30
	.ENDM

	.MACRO __CPWRR
	CP   R@0,R@2
	CPC  R@1,R@3
	.ENDM

	.MACRO __CPWRN
	CPI  R@0,LOW(@2)
	LDI  R30,HIGH(@2)
	CPC  R@1,R30
	.ENDM

	.MACRO __ADDB1MN
	SUBI R30,LOW(-@0-(@1))
	.ENDM

	.MACRO __ADDB2MN
	SUBI R26,LOW(-@0-(@1))
	.ENDM

	.MACRO __ADDW1MN
	SUBI R30,LOW(-@0-(@1))
	SBCI R31,HIGH(-@0-(@1))
	.ENDM

	.MACRO __ADDW2MN
	SUBI R26,LOW(-@0-(@1))
	SBCI R27,HIGH(-@0-(@1))
	.ENDM

	.MACRO __ADDW1FN
	SUBI R30,LOW(-2*@0-(@1))
	SBCI R31,HIGH(-2*@0-(@1))
	.ENDM

	.MACRO __ADDD1FN
	SUBI R30,LOW(-2*@0-(@1))
	SBCI R31,HIGH(-2*@0-(@1))
	SBCI R22,BYTE3(-2*@0-(@1))
	.ENDM

	.MACRO __ADDD1N
	SUBI R30,LOW(-@0)
	SBCI R31,HIGH(-@0)
	SBCI R22,BYTE3(-@0)
	SBCI R23,BYTE4(-@0)
	.ENDM

	.MACRO __ADDD2N
	SUBI R26,LOW(-@0)
	SBCI R27,HIGH(-@0)
	SBCI R24,BYTE3(-@0)
	SBCI R25,BYTE4(-@0)
	.ENDM

	.MACRO __SUBD1N
	SUBI R30,LOW(@0)
	SBCI R31,HIGH(@0)
	SBCI R22,BYTE3(@0)
	SBCI R23,BYTE4(@0)
	.ENDM

	.MACRO __SUBD2N
	SUBI R26,LOW(@0)
	SBCI R27,HIGH(@0)
	SBCI R24,BYTE3(@0)
	SBCI R25,BYTE4(@0)
	.ENDM

	.MACRO __ANDBMNN
	LDS  R30,@0+(@1)
	ANDI R30,LOW(@2)
	STS  @0+(@1),R30
	.ENDM

	.MACRO __ANDWMNN
	LDS  R30,@0+(@1)
	ANDI R30,LOW(@2)
	STS  @0+(@1),R30
	LDS  R30,@0+(@1)+1
	ANDI R30,HIGH(@2)
	STS  @0+(@1)+1,R30
	.ENDM

	.MACRO __ANDD1N
	ANDI R30,LOW(@0)
	ANDI R31,HIGH(@0)
	ANDI R22,BYTE3(@0)
	ANDI R23,BYTE4(@0)
	.ENDM

	.MACRO __ANDD2N
	ANDI R26,LOW(@0)
	ANDI R27,HIGH(@0)
	ANDI R24,BYTE3(@0)
	ANDI R25,BYTE4(@0)
	.ENDM

	.MACRO __ORBMNN
	LDS  R30,@0+(@1)
	ORI  R30,LOW(@2)
	STS  @0+(@1),R30
	.ENDM

	.MACRO __ORWMNN
	LDS  R30,@0+(@1)
	ORI  R30,LOW(@2)
	STS  @0+(@1),R30
	LDS  R30,@0+(@1)+1
	ORI  R30,HIGH(@2)
	STS  @0+(@1)+1,R30
	.ENDM

	.MACRO __ORD1N
	ORI  R30,LOW(@0)
	ORI  R31,HIGH(@0)
	ORI  R22,BYTE3(@0)
	ORI  R23,BYTE4(@0)
	.ENDM

	.MACRO __ORD2N
	ORI  R26,LOW(@0)
	ORI  R27,HIGH(@0)
	ORI  R24,BYTE3(@0)
	ORI  R25,BYTE4(@0)
	.ENDM

	.MACRO __DELAY_USB
	LDI  R24,LOW(@0)
__DELAY_USB_LOOP:
	DEC  R24
	BRNE __DELAY_USB_LOOP
	.ENDM

	.MACRO __DELAY_USW
	LDI  R24,LOW(@0)
	LDI  R25,HIGH(@0)
__DELAY_USW_LOOP:
	SBIW R24,1
	BRNE __DELAY_USW_LOOP
	.ENDM

	.MACRO __GETD1S
	LDD  R30,Y+@0
	LDD  R31,Y+@0+1
	LDD  R22,Y+@0+2
	LDD  R23,Y+@0+3
	.ENDM

	.MACRO __GETD2S
	LDD  R26,Y+@0
	LDD  R27,Y+@0+1
	LDD  R24,Y+@0+2
	LDD  R25,Y+@0+3
	.ENDM

	.MACRO __PUTD1S
	STD  Y+@0,R30
	STD  Y+@0+1,R31
	STD  Y+@0+2,R22
	STD  Y+@0+3,R23
	.ENDM

	.MACRO __PUTD2S
	STD  Y+@0,R26
	STD  Y+@0+1,R27
	STD  Y+@0+2,R24
	STD  Y+@0+3,R25
	.ENDM

	.MACRO __PUTDZ2
	STD  Z+@0,R26
	STD  Z+@0+1,R27
	STD  Z+@0+2,R24
	STD  Z+@0+3,R25
	.ENDM

	.MACRO __CLRD1S
	STD  Y+@0,R30
	STD  Y+@0+1,R30
	STD  Y+@0+2,R30
	STD  Y+@0+3,R30
	.ENDM

	.MACRO __POINTB1MN
	LDI  R30,LOW(@0+(@1))
	.ENDM

	.MACRO __POINTW1MN
	LDI  R30,LOW(@0+(@1))
	LDI  R31,HIGH(@0+(@1))
	.ENDM

	.MACRO __POINTD1M
	LDI  R30,LOW(@0)
	LDI  R31,HIGH(@0)
	LDI  R22,BYTE3(@0)
	LDI  R23,BYTE4(@0)
	.ENDM

	.MACRO __POINTW1FN
	LDI  R30,LOW(2*@0+(@1))
	LDI  R31,HIGH(2*@0+(@1))
	.ENDM

	.MACRO __POINTD1FN
	LDI  R30,LOW(2*@0+(@1))
	LDI  R31,HIGH(2*@0+(@1))
	LDI  R22,BYTE3(2*@0+(@1))
	LDI  R23,BYTE4(2*@0+(@1))
	.ENDM

	.MACRO __POINTB2MN
	LDI  R26,LOW(@0+(@1))
	.ENDM

	.MACRO __POINTW2MN
	LDI  R26,LOW(@0+(@1))
	LDI  R27,HIGH(@0+(@1))
	.ENDM

	.MACRO __POINTW2FN
	LDI  R26,LOW(2*@0+(@1))
	LDI  R27,HIGH(2*@0+(@1))
	.ENDM

	.MACRO __POINTD2FN
	LDI  R26,LOW(2*@0+(@1))
	LDI  R27,HIGH(2*@0+(@1))
	LDI  R24,BYTE3(2*@0+(@1))
	LDI  R25,BYTE4(2*@0+(@1))
	.ENDM

	.MACRO __POINTBRM
	LDI  R@0,LOW(@1)
	.ENDM

	.MACRO __POINTWRM
	LDI  R@0,LOW(@2)
	LDI  R@1,HIGH(@2)
	.ENDM

	.MACRO __POINTBRMN
	LDI  R@0,LOW(@1+(@2))
	.ENDM

	.MACRO __POINTWRMN
	LDI  R@0,LOW(@2+(@3))
	LDI  R@1,HIGH(@2+(@3))
	.ENDM

	.MACRO __POINTWRFN
	LDI  R@0,LOW(@2*2+(@3))
	LDI  R@1,HIGH(@2*2+(@3))
	.ENDM

	.MACRO __GETD1N
	LDI  R30,LOW(@0)
	LDI  R31,HIGH(@0)
	LDI  R22,BYTE3(@0)
	LDI  R23,BYTE4(@0)
	.ENDM

	.MACRO __GETD2N
	LDI  R26,LOW(@0)
	LDI  R27,HIGH(@0)
	LDI  R24,BYTE3(@0)
	LDI  R25,BYTE4(@0)
	.ENDM

	.MACRO __GETB1MN
	LDS  R30,@0+(@1)
	.ENDM

	.MACRO __GETB1HMN
	LDS  R31,@0+(@1)
	.ENDM

	.MACRO __GETW1MN
	LDS  R30,@0+(@1)
	LDS  R31,@0+(@1)+1
	.ENDM

	.MACRO __GETD1MN
	LDS  R30,@0+(@1)
	LDS  R31,@0+(@1)+1
	LDS  R22,@0+(@1)+2
	LDS  R23,@0+(@1)+3
	.ENDM

	.MACRO __GETBRMN
	LDS  R@0,@1+(@2)
	.ENDM

	.MACRO __GETWRMN
	LDS  R@0,@2+(@3)
	LDS  R@1,@2+(@3)+1
	.ENDM

	.MACRO __GETWRZ
	LDD  R@0,Z+@2
	LDD  R@1,Z+@2+1
	.ENDM

	.MACRO __GETD2Z
	LDD  R26,Z+@0
	LDD  R27,Z+@0+1
	LDD  R24,Z+@0+2
	LDD  R25,Z+@0+3
	.ENDM

	.MACRO __GETB2MN
	LDS  R26,@0+(@1)
	.ENDM

	.MACRO __GETW2MN
	LDS  R26,@0+(@1)
	LDS  R27,@0+(@1)+1
	.ENDM

	.MACRO __GETD2MN
	LDS  R26,@0+(@1)
	LDS  R27,@0+(@1)+1
	LDS  R24,@0+(@1)+2
	LDS  R25,@0+(@1)+3
	.ENDM

	.MACRO __PUTB1MN
	STS  @0+(@1),R30
	.ENDM

	.MACRO __PUTW1MN
	STS  @0+(@1),R30
	STS  @0+(@1)+1,R31
	.ENDM

	.MACRO __PUTD1MN
	STS  @0+(@1),R30
	STS  @0+(@1)+1,R31
	STS  @0+(@1)+2,R22
	STS  @0+(@1)+3,R23
	.ENDM

	.MACRO __PUTB1EN
	LDI  R26,LOW(@0+(@1))
	LDI  R27,HIGH(@0+(@1))
	CALL __EEPROMWRB
	.ENDM

	.MACRO __PUTW1EN
	LDI  R26,LOW(@0+(@1))
	LDI  R27,HIGH(@0+(@1))
	CALL __EEPROMWRW
	.ENDM

	.MACRO __PUTD1EN
	LDI  R26,LOW(@0+(@1))
	LDI  R27,HIGH(@0+(@1))
	CALL __EEPROMWRD
	.ENDM

	.MACRO __PUTBR0MN
	STS  @0+(@1),R0
	.ENDM

	.MACRO __PUTBMRN
	STS  @0+(@1),R@2
	.ENDM

	.MACRO __PUTWMRN
	STS  @0+(@1),R@2
	STS  @0+(@1)+1,R@3
	.ENDM

	.MACRO __PUTBZR
	STD  Z+@1,R@0
	.ENDM

	.MACRO __PUTWZR
	STD  Z+@2,R@0
	STD  Z+@2+1,R@1
	.ENDM

	.MACRO __GETW1R
	MOV  R30,R@0
	MOV  R31,R@1
	.ENDM

	.MACRO __GETW2R
	MOV  R26,R@0
	MOV  R27,R@1
	.ENDM

	.MACRO __GETWRN
	LDI  R@0,LOW(@2)
	LDI  R@1,HIGH(@2)
	.ENDM

	.MACRO __PUTW1R
	MOV  R@0,R30
	MOV  R@1,R31
	.ENDM

	.MACRO __PUTW2R
	MOV  R@0,R26
	MOV  R@1,R27
	.ENDM

	.MACRO __ADDWRN
	SUBI R@0,LOW(-@2)
	SBCI R@1,HIGH(-@2)
	.ENDM

	.MACRO __ADDWRR
	ADD  R@0,R@2
	ADC  R@1,R@3
	.ENDM

	.MACRO __SUBWRN
	SUBI R@0,LOW(@2)
	SBCI R@1,HIGH(@2)
	.ENDM

	.MACRO __SUBWRR
	SUB  R@0,R@2
	SBC  R@1,R@3
	.ENDM

	.MACRO __ANDWRN
	ANDI R@0,LOW(@2)
	ANDI R@1,HIGH(@2)
	.ENDM

	.MACRO __ANDWRR
	AND  R@0,R@2
	AND  R@1,R@3
	.ENDM

	.MACRO __ORWRN
	ORI  R@0,LOW(@2)
	ORI  R@1,HIGH(@2)
	.ENDM

	.MACRO __ORWRR
	OR   R@0,R@2
	OR   R@1,R@3
	.ENDM

	.MACRO __EORWRR
	EOR  R@0,R@2
	EOR  R@1,R@3
	.ENDM

	.MACRO __GETWRS
	LDD  R@0,Y+@2
	LDD  R@1,Y+@2+1
	.ENDM

	.MACRO __PUTBSR
	STD  Y+@1,R@0
	.ENDM

	.MACRO __PUTWSR
	STD  Y+@2,R@0
	STD  Y+@2+1,R@1
	.ENDM

	.MACRO __MOVEWRR
	MOV  R@0,R@2
	MOV  R@1,R@3
	.ENDM

	.MACRO __INWR
	IN   R@0,@2
	IN   R@1,@2+1
	.ENDM

	.MACRO __OUTWR
	OUT  @2+1,R@1
	OUT  @2,R@0
	.ENDM

	.MACRO __CALL1MN
	LDS  R30,@0+(@1)
	LDS  R31,@0+(@1)+1
	ICALL
	.ENDM

	.MACRO __CALL1FN
	LDI  R30,LOW(2*@0+(@1))
	LDI  R31,HIGH(2*@0+(@1))
	CALL __GETW1PF
	ICALL
	.ENDM

	.MACRO __CALL2EN
	PUSH R26
	PUSH R27
	LDI  R26,LOW(@0+(@1))
	LDI  R27,HIGH(@0+(@1))
	CALL __EEPROMRDW
	POP  R27
	POP  R26
	ICALL
	.ENDM

	.MACRO __CALL2EX
	SUBI R26,LOW(-@0)
	SBCI R27,HIGH(-@0)
	CALL __EEPROMRDD
	ICALL
	.ENDM

	.MACRO __GETW1STACK
	IN   R30,SPL
	IN   R31,SPH
	ADIW R30,@0+1
	LD   R0,Z+
	LD   R31,Z
	MOV  R30,R0
	.ENDM

	.MACRO __GETD1STACK
	IN   R30,SPL
	IN   R31,SPH
	ADIW R30,@0+1
	LD   R0,Z+
	LD   R1,Z+
	LD   R22,Z
	MOVW R30,R0
	.ENDM

	.MACRO __NBST
	BST  R@0,@1
	IN   R30,SREG
	LDI  R31,0x40
	EOR  R30,R31
	OUT  SREG,R30
	.ENDM


	.MACRO __PUTB1SN
	LDD  R26,Y+@0
	LDD  R27,Y+@0+1
	SUBI R26,LOW(-@1)
	SBCI R27,HIGH(-@1)
	ST   X,R30
	.ENDM

	.MACRO __PUTW1SN
	LDD  R26,Y+@0
	LDD  R27,Y+@0+1
	SUBI R26,LOW(-@1)
	SBCI R27,HIGH(-@1)
	ST   X+,R30
	ST   X,R31
	.ENDM

	.MACRO __PUTD1SN
	LDD  R26,Y+@0
	LDD  R27,Y+@0+1
	SUBI R26,LOW(-@1)
	SBCI R27,HIGH(-@1)
	CALL __PUTDP1
	.ENDM

	.MACRO __PUTB1SNS
	LDD  R26,Y+@0
	LDD  R27,Y+@0+1
	ADIW R26,@1
	ST   X,R30
	.ENDM

	.MACRO __PUTW1SNS
	LDD  R26,Y+@0
	LDD  R27,Y+@0+1
	ADIW R26,@1
	ST   X+,R30
	ST   X,R31
	.ENDM

	.MACRO __PUTD1SNS
	LDD  R26,Y+@0
	LDD  R27,Y+@0+1
	ADIW R26,@1
	CALL __PUTDP1
	.ENDM

	.MACRO __PUTB1PMN
	LDS  R26,@0
	LDS  R27,@0+1
	SUBI R26,LOW(-@1)
	SBCI R27,HIGH(-@1)
	ST   X,R30
	.ENDM

	.MACRO __PUTW1PMN
	LDS  R26,@0
	LDS  R27,@0+1
	SUBI R26,LOW(-@1)
	SBCI R27,HIGH(-@1)
	ST   X+,R30
	ST   X,R31
	.ENDM

	.MACRO __PUTD1PMN
	LDS  R26,@0
	LDS  R27,@0+1
	SUBI R26,LOW(-@1)
	SBCI R27,HIGH(-@1)
	CALL __PUTDP1
	.ENDM

	.MACRO __PUTB1PMNS
	LDS  R26,@0
	LDS  R27,@0+1
	ADIW R26,@1
	ST   X,R30
	.ENDM

	.MACRO __PUTW1PMNS
	LDS  R26,@0
	LDS  R27,@0+1
	ADIW R26,@1
	ST   X+,R30
	ST   X,R31
	.ENDM

	.MACRO __PUTD1PMNS
	LDS  R26,@0
	LDS  R27,@0+1
	ADIW R26,@1
	CALL __PUTDP1
	.ENDM

	.MACRO __PUTB1RN
	MOVW R26,R@0
	SUBI R26,LOW(-@1)
	SBCI R27,HIGH(-@1)
	ST   X,R30
	.ENDM

	.MACRO __PUTW1RN
	MOVW R26,R@0
	SUBI R26,LOW(-@1)
	SBCI R27,HIGH(-@1)
	ST   X+,R30
	ST   X,R31
	.ENDM

	.MACRO __PUTD1RN
	MOVW R26,R@0
	SUBI R26,LOW(-@1)
	SBCI R27,HIGH(-@1)
	CALL __PUTDP1
	.ENDM

	.MACRO __PUTB1RNS
	MOVW R26,R@0
	ADIW R26,@1
	ST   X,R30
	.ENDM

	.MACRO __PUTW1RNS
	MOVW R26,R@0
	ADIW R26,@1
	ST   X+,R30
	ST   X,R31
	.ENDM

	.MACRO __PUTD1RNS
	MOVW R26,R@0
	ADIW R26,@1
	CALL __PUTDP1
	.ENDM

	.MACRO __PUTB1RON
	MOV  R26,R@0
	MOV  R27,R@1
	SUBI R26,LOW(-@2)
	SBCI R27,HIGH(-@2)
	ST   X,R30
	.ENDM

	.MACRO __PUTW1RON
	MOV  R26,R@0
	MOV  R27,R@1
	SUBI R26,LOW(-@2)
	SBCI R27,HIGH(-@2)
	ST   X+,R30
	ST   X,R31
	.ENDM

	.MACRO __PUTD1RON
	MOV  R26,R@0
	MOV  R27,R@1
	SUBI R26,LOW(-@2)
	SBCI R27,HIGH(-@2)
	CALL __PUTDP1
	.ENDM

	.MACRO __PUTB1RONS
	MOV  R26,R@0
	MOV  R27,R@1
	ADIW R26,@2
	ST   X,R30
	.ENDM

	.MACRO __PUTW1RONS
	MOV  R26,R@0
	MOV  R27,R@1
	ADIW R26,@2
	ST   X+,R30
	ST   X,R31
	.ENDM

	.MACRO __PUTD1RONS
	MOV  R26,R@0
	MOV  R27,R@1
	ADIW R26,@2
	CALL __PUTDP1
	.ENDM


	.MACRO __GETB1SX
	MOVW R30,R28
	SUBI R30,LOW(-@0)
	SBCI R31,HIGH(-@0)
	LD   R30,Z
	.ENDM

	.MACRO __GETB1HSX
	MOVW R30,R28
	SUBI R30,LOW(-@0)
	SBCI R31,HIGH(-@0)
	LD   R31,Z
	.ENDM

	.MACRO __GETW1SX
	MOVW R30,R28
	SUBI R30,LOW(-@0)
	SBCI R31,HIGH(-@0)
	LD   R0,Z+
	LD   R31,Z
	MOV  R30,R0
	.ENDM

	.MACRO __GETD1SX
	MOVW R30,R28
	SUBI R30,LOW(-@0)
	SBCI R31,HIGH(-@0)
	LD   R0,Z+
	LD   R1,Z+
	LD   R22,Z+
	LD   R23,Z
	MOVW R30,R0
	.ENDM

	.MACRO __GETB2SX
	MOVW R26,R28
	SUBI R26,LOW(-@0)
	SBCI R27,HIGH(-@0)
	LD   R26,X
	.ENDM

	.MACRO __GETW2SX
	MOVW R26,R28
	SUBI R26,LOW(-@0)
	SBCI R27,HIGH(-@0)
	LD   R0,X+
	LD   R27,X
	MOV  R26,R0
	.ENDM

	.MACRO __GETD2SX
	MOVW R26,R28
	SUBI R26,LOW(-@0)
	SBCI R27,HIGH(-@0)
	LD   R0,X+
	LD   R1,X+
	LD   R24,X+
	LD   R25,X
	MOVW R26,R0
	.ENDM

	.MACRO __GETBRSX
	MOVW R30,R28
	SUBI R30,LOW(-@1)
	SBCI R31,HIGH(-@1)
	LD   R@0,Z
	.ENDM

	.MACRO __GETWRSX
	MOVW R30,R28
	SUBI R30,LOW(-@2)
	SBCI R31,HIGH(-@2)
	LD   R@0,Z+
	LD   R@1,Z
	.ENDM

	.MACRO __GETBRSX2
	MOVW R26,R28
	SUBI R26,LOW(-@1)
	SBCI R27,HIGH(-@1)
	LD   R@0,X
	.ENDM

	.MACRO __GETWRSX2
	MOVW R26,R28
	SUBI R26,LOW(-@2)
	SBCI R27,HIGH(-@2)
	LD   R@0,X+
	LD   R@1,X
	.ENDM

	.MACRO __LSLW8SX
	MOVW R30,R28
	SUBI R30,LOW(-@0)
	SBCI R31,HIGH(-@0)
	LD   R31,Z
	CLR  R30
	.ENDM

	.MACRO __PUTB1SX
	MOVW R26,R28
	SUBI R26,LOW(-@0)
	SBCI R27,HIGH(-@0)
	ST   X,R30
	.ENDM

	.MACRO __PUTW1SX
	MOVW R26,R28
	SUBI R26,LOW(-@0)
	SBCI R27,HIGH(-@0)
	ST   X+,R30
	ST   X,R31
	.ENDM

	.MACRO __PUTD1SX
	MOVW R26,R28
	SUBI R26,LOW(-@0)
	SBCI R27,HIGH(-@0)
	ST   X+,R30
	ST   X+,R31
	ST   X+,R22
	ST   X,R23
	.ENDM

	.MACRO __CLRW1SX
	MOVW R26,R28
	SUBI R26,LOW(-@0)
	SBCI R27,HIGH(-@0)
	ST   X+,R30
	ST   X,R30
	.ENDM

	.MACRO __CLRD1SX
	MOVW R26,R28
	SUBI R26,LOW(-@0)
	SBCI R27,HIGH(-@0)
	ST   X+,R30
	ST   X+,R30
	ST   X+,R30
	ST   X,R30
	.ENDM

	.MACRO __PUTB2SX
	MOVW R30,R28
	SUBI R30,LOW(-@0)
	SBCI R31,HIGH(-@0)
	ST   Z,R26
	.ENDM

	.MACRO __PUTW2SX
	MOVW R30,R28
	SUBI R30,LOW(-@0)
	SBCI R31,HIGH(-@0)
	ST   Z+,R26
	ST   Z,R27
	.ENDM

	.MACRO __PUTD2SX
	MOVW R30,R28
	SUBI R30,LOW(-@0)
	SBCI R31,HIGH(-@0)
	ST   Z+,R26
	ST   Z+,R27
	ST   Z+,R24
	ST   Z,R25
	.ENDM

	.MACRO __PUTBSRX
	MOVW R30,R28
	SUBI R30,LOW(-@1)
	SBCI R31,HIGH(-@1)
	ST   Z,R@0
	.ENDM

	.MACRO __PUTWSRX
	MOVW R30,R28
	SUBI R30,LOW(-@2)
	SBCI R31,HIGH(-@2)
	ST   Z+,R@0
	ST   Z,R@1
	.ENDM

	.MACRO __PUTB1SNX
	MOVW R26,R28
	SUBI R26,LOW(-@0)
	SBCI R27,HIGH(-@0)
	LD   R0,X+
	LD   R27,X
	MOV  R26,R0
	SUBI R26,LOW(-@1)
	SBCI R27,HIGH(-@1)
	ST   X,R30
	.ENDM

	.MACRO __PUTW1SNX
	MOVW R26,R28
	SUBI R26,LOW(-@0)
	SBCI R27,HIGH(-@0)
	LD   R0,X+
	LD   R27,X
	MOV  R26,R0
	SUBI R26,LOW(-@1)
	SBCI R27,HIGH(-@1)
	ST   X+,R30
	ST   X,R31
	.ENDM

	.MACRO __PUTD1SNX
	MOVW R26,R28
	SUBI R26,LOW(-@0)
	SBCI R27,HIGH(-@0)
	LD   R0,X+
	LD   R27,X
	MOV  R26,R0
	SUBI R26,LOW(-@1)
	SBCI R27,HIGH(-@1)
	ST   X+,R30
	ST   X+,R31
	ST   X+,R22
	ST   X,R23
	.ENDM

	.MACRO __MULBRR
	MULS R@0,R@1
	MOVW R30,R0
	.ENDM

	.MACRO __MULBRRU
	MUL  R@0,R@1
	MOVW R30,R0
	.ENDM

	.MACRO __MULBRR0
	MULS R@0,R@1
	.ENDM

	.MACRO __MULBRRU0
	MUL  R@0,R@1
	.ENDM

	.MACRO __MULBNWRU
	LDI  R26,@2
	MUL  R26,R@0
	MOVW R30,R0
	MUL  R26,R@1
	ADD  R31,R0
	.ENDM

;NAME DEFINITIONS FOR GLOBAL VARIABLES ALLOCATED TO REGISTERS
	.DEF _a=R4
	.DEF _a_msb=R5
	.DEF _i=R6
	.DEF _i_msb=R7
	.DEF __lcd_x=R9
	.DEF __lcd_y=R8
	.DEF __lcd_maxx=R11

	.CSEG
	.ORG 0x00

;START OF CODE MARKER
__START_OF_CODE:

;INTERRUPT VECTORS
	JMP  __RESET
	JMP  0x00
	JMP  0x00
	JMP  0x00
	JMP  0x00
	JMP  0x00
	JMP  0x00
	JMP  0x00
	JMP  0x00
	JMP  0x00
	JMP  0x00
	JMP  0x00
	JMP  0x00
	JMP  0x00
	JMP  0x00
	JMP  0x00
	JMP  0x00
	JMP  0x00
	JMP  0x00
	JMP  0x00
	JMP  0x00

_tbl10_G101:
	.DB  0x10,0x27,0xE8,0x3,0x64,0x0,0xA,0x0
	.DB  0x1,0x0
_tbl16_G101:
	.DB  0x0,0x10,0x0,0x1,0x10,0x0,0x1,0x0

_0x0:
	.DB  0x45,0x72,0x72,0x6F,0x72,0x0,0x50,0x72
	.DB  0x65,0x73,0x73,0x20,0x31,0x20,0x6F,0x72
	.DB  0x20,0x32,0x20,0x6F,0x72,0x20,0x33,0x0
	.DB  0x77,0x61,0x74,0x65,0x72,0x0,0x57,0x61
	.DB  0x73,0x68,0x69,0x6E,0x67,0x0,0x44,0x72
	.DB  0x79,0x69,0x6E,0x67,0x0,0x77,0x61,0x74
	.DB  0x65,0x72,0x20,0x65,0x76,0x61,0x63,0x74
	.DB  0x69,0x6F,0x6E,0x0
_0x2000003:
	.DB  0x80,0xC0

__GLOBAL_INI_TBL:
	.DW  0x06
	.DW  _0xE
	.DW  _0x0*2

	.DW  0x12
	.DW  _0xE+6
	.DW  _0x0*2+6

	.DW  0x06
	.DW  _0xE+24
	.DW  _0x0*2+24

	.DW  0x08
	.DW  _0xE+30
	.DW  _0x0*2+30

	.DW  0x07
	.DW  _0xE+38
	.DW  _0x0*2+38

	.DW  0x0F
	.DW  _0xE+45
	.DW  _0x0*2+45

	.DW  0x06
	.DW  _0xE+60
	.DW  _0x0*2+24

	.DW  0x08
	.DW  _0xE+66
	.DW  _0x0*2+30

	.DW  0x07
	.DW  _0xE+74
	.DW  _0x0*2+38

	.DW  0x0F
	.DW  _0xE+81
	.DW  _0x0*2+45

	.DW  0x06
	.DW  _0xE+96
	.DW  _0x0*2+24

	.DW  0x08
	.DW  _0xE+102
	.DW  _0x0*2+30

	.DW  0x07
	.DW  _0xE+110
	.DW  _0x0*2+38

	.DW  0x0F
	.DW  _0xE+117
	.DW  _0x0*2+45

	.DW  0x06
	.DW  _0x24
	.DW  _0x0*2

	.DW  0x06
	.DW  _0x24+6
	.DW  _0x0*2

	.DW  0x06
	.DW  _0x24+12
	.DW  _0x0*2

	.DW  0x06
	.DW  _0x24+18
	.DW  _0x0*2

	.DW  0x12
	.DW  _0x24+24
	.DW  _0x0*2+6

	.DW  0x02
	.DW  __base_y_G100
	.DW  _0x2000003*2

_0xFFFFFFFF:
	.DW  0

#define __GLOBAL_INI_TBL_PRESENT 1

__RESET:
	CLI
	CLR  R30
	OUT  EECR,R30

;INTERRUPT VECTORS ARE PLACED
;AT THE START OF FLASH
	LDI  R31,1
	OUT  GICR,R31
	OUT  GICR,R30
	OUT  MCUCR,R30

;CLEAR R2-R14
	LDI  R24,(14-2)+1
	LDI  R26,2
	CLR  R27
__CLEAR_REG:
	ST   X+,R30
	DEC  R24
	BRNE __CLEAR_REG

;CLEAR SRAM
	LDI  R24,LOW(__CLEAR_SRAM_SIZE)
	LDI  R25,HIGH(__CLEAR_SRAM_SIZE)
	LDI  R26,__SRAM_START
__CLEAR_SRAM:
	ST   X+,R30
	SBIW R24,1
	BRNE __CLEAR_SRAM

;GLOBAL VARIABLES INITIALIZATION
	LDI  R30,LOW(__GLOBAL_INI_TBL*2)
	LDI  R31,HIGH(__GLOBAL_INI_TBL*2)
__GLOBAL_INI_NEXT:
	LPM  R24,Z+
	LPM  R25,Z+
	SBIW R24,0
	BREQ __GLOBAL_INI_END
	LPM  R26,Z+
	LPM  R27,Z+
	LPM  R0,Z+
	LPM  R1,Z+
	MOVW R22,R30
	MOVW R30,R0
__GLOBAL_INI_LOOP:
	LPM  R0,Z+
	ST   X+,R0
	SBIW R24,1
	BRNE __GLOBAL_INI_LOOP
	MOVW R30,R22
	RJMP __GLOBAL_INI_NEXT
__GLOBAL_INI_END:

;HARDWARE STACK POINTER INITIALIZATION
	LDI  R30,LOW(__SRAM_END-__HEAP_SIZE)
	OUT  SPL,R30
	LDI  R30,HIGH(__SRAM_END-__HEAP_SIZE)
	OUT  SPH,R30

;DATA STACK POINTER INITIALIZATION
	LDI  R28,LOW(__SRAM_START+__DSTACK_SIZE)
	LDI  R29,HIGH(__SRAM_START+__DSTACK_SIZE)

	JMP  _main

	.ESEG
	.ORG 0

	.DSEG
	.ORG 0x260

	.CSEG
;/*******************************************************
;This program was created by the
;CodeWizardAVR V3.12 Advanced
;Automatic Program Generator
;© Copyright 1998-2014 Pavel Haiduc, HP InfoTech s.r.l.
;http://www.hpinfotech.com
;
;Project :
;Version :
;Date    : 11/27/2023
;Author  :
;Company :
;Comments:
;
;
;Chip type               : ATmega32
;Program type            : Application
;AVR Core Clock frequency: 8.000000 MHz
;Memory model            : Small
;External RAM size       : 0
;Data Stack size         : 512
;*******************************************************/
;
;#include <mega32.h>
	#ifndef __SLEEP_DEFINED__
	#define __SLEEP_DEFINED__
	.EQU __se_bit=0x80
	.EQU __sm_mask=0x70
	.EQU __sm_powerdown=0x20
	.EQU __sm_powersave=0x30
	.EQU __sm_standby=0x60
	.EQU __sm_ext_standby=0x70
	.EQU __sm_adc_noise_red=0x10
	.SET power_ctrl_reg=mcucr
	#endif
;
;// Alphanumeric LCD functions
;#include <alcd.h>
;#include <delay.h>
;#include <stdio.h>
;#asm
 .equ __lcd_port=0x12
; 0000 0020 #endasm
;
;#define TEMPERATURE_LEVEL_SENSOR 0xC0
;#define MOTOR_PIN PIND.0
;
;
;void process_cycle(int water_duration,int motor_duration,int drying_duration,int water_evaction,const char* water_messag ...
;
;unsigned int read_temperature(unsigned char adc_input){
; 0000 0028 unsigned int read_temperature(unsigned char adc_input){

	.CSEG
_read_temperature:
; .FSTART _read_temperature
; 0000 0029 ADMUX=adc_input | ( TEMPERATURE_LEVEL_SENSOR & 0xff);
	ST   -Y,R26
;	adc_input -> Y+0
	LD   R30,Y
	ORI  R30,LOW(0xC0)
	OUT  0x7,R30
; 0000 002A delay_us(10);
	__DELAY_USB 27
; 0000 002B ADCSRA|=0x40;
	SBI  0x6,6
; 0000 002C while ((ADCSRA & 0x10)==0);
_0x3:
	SBIS 0x6,4
	RJMP _0x3
; 0000 002D ADCSRA|=0x10;
	SBI  0x6,4
; 0000 002E return ADCW;
	IN   R30,0x4
	IN   R31,0x4+1
	JMP  _0x2080001
; 0000 002F }
; .FEND
;
;
;// Declare your global variables here
;unsigned int a;
;int i;
;
;
;void main(void)
; 0000 0038 {
_main:
; .FSTART _main
; 0000 0039 
; 0000 003A 
; 0000 003B // Declare your local variables here
; 0000 003C 
; 0000 003D // Input/Output Ports initialization
; 0000 003E // Port A initialization
; 0000 003F // Function: Bit7=In Bit6=In Bit5=In Bit4=In Bit3=In Bit2=In Bit1=In Bit0=In
; 0000 0040 DDRA=(0<<DDA7) | (0<<DDA6) | (0<<DDA5) | (0<<DDA4) | (0<<DDA3) | (0<<DDA2) | (0<<DDA1) | (0<<DDA0);
	LDI  R30,LOW(0)
	OUT  0x1A,R30
; 0000 0041 // State: Bit7=T Bit6=T Bit5=T Bit4=T Bit3=T Bit2=T Bit1=T Bit0=T
; 0000 0042 PORTA=(0<<PORTA7) | (0<<PORTA6) | (0<<PORTA5) | (0<<PORTA4) | (0<<PORTA3) | (0<<PORTA2) | (0<<PORTA1) | (0<<PORTA0);
	OUT  0x1B,R30
; 0000 0043 
; 0000 0044 // Port B initialization
; 0000 0045 // Function: Bit7=In Bit6=In Bit5=In Bit4=In Bit3=In Bit2=In Bit1=In Bit0=In
; 0000 0046 DDRB=(0<<DDB7) | (0<<DDB6) | (0<<DDB5) | (0<<DDB4) | (0<<DDB3) | (0<<DDB2) | (0<<DDB1) | (0<<DDB0);
	OUT  0x17,R30
; 0000 0047 // State: Bit7=T Bit6=T Bit5=T Bit4=T Bit3=T Bit2=T Bit1=T Bit0=T
; 0000 0048 PORTB=(0<<PORTB7) | (0<<PORTB6) | (0<<PORTB5) | (0<<PORTB4) | (0<<PORTB3) | (0<<PORTB2) | (0<<PORTB1) | (0<<PORTB0);
	OUT  0x18,R30
; 0000 0049 
; 0000 004A // Port C initialization
; 0000 004B // Function: Bit7=In Bit6=In Bit5=In Bit4=In Bit3=In Bit2=In Bit1=In Bit0=In
; 0000 004C DDRC=(0<<DDC7) | (0<<DDC6) | (0<<DDC5) | (0<<DDC4) | (0<<DDC3) | (0<<DDC2) | (0<<DDC1) | (0<<DDC0);
	OUT  0x14,R30
; 0000 004D // State: Bit7=T Bit6=T Bit5=T Bit4=T Bit3=T Bit2=T Bit1=T Bit0=T
; 0000 004E PORTC=(0<<PORTC7) | (0<<PORTC6) | (0<<PORTC5) | (0<<PORTC4) | (0<<PORTC3) | (0<<PORTC2) | (0<<PORTC1) | (0<<PORTC0);
	OUT  0x15,R30
; 0000 004F 
; 0000 0050 // Port D initialization
; 0000 0051 // Function: Bit7=Out Bit6=Out Bit5=Out Bit4=Out Bit3=Out Bit2=Out Bit1=Out Bit0=Out
; 0000 0052 DDRD=(1<<DDD7) | (1<<DDD6) | (1<<DDD5) | (1<<DDD4) | (1<<DDD3) | (1<<DDD2) | (1<<DDD1) | (1<<DDD0);
	LDI  R30,LOW(255)
	OUT  0x11,R30
; 0000 0053 // State: Bit7=0 Bit6=0 Bit5=0 Bit4=0 Bit3=0 Bit2=0 Bit1=0 Bit0=0
; 0000 0054 PORTD=(0<<PORTD7) | (0<<PORTD6) | (0<<PORTD5) | (0<<PORTD4) | (0<<PORTD3) | (0<<PORTD2) | (0<<PORTD1) | (0<<PORTD0);
	LDI  R30,LOW(0)
	OUT  0x12,R30
; 0000 0055 
; 0000 0056 // Timer/Counter 0 initialization
; 0000 0057 // Clock source: System Clock
; 0000 0058 // Clock value: Timer 0 Stopped
; 0000 0059 // Mode: Normal top=0xFF
; 0000 005A // OC0 output: Disconnected
; 0000 005B TCCR0=(0<<WGM00) | (0<<COM01) | (0<<COM00) | (0<<WGM01) | (0<<CS02) | (0<<CS01) | (0<<CS00);
	OUT  0x33,R30
; 0000 005C TCNT0=0x00;
	OUT  0x32,R30
; 0000 005D OCR0=0x00;
	OUT  0x3C,R30
; 0000 005E 
; 0000 005F // Timer/Counter 1 initialization
; 0000 0060 // Clock source: System Clock
; 0000 0061 // Clock value: Timer1 Stopped
; 0000 0062 // Mode: Normal top=0xFFFF
; 0000 0063 // OC1A output: Disconnected
; 0000 0064 // OC1B output: Disconnected
; 0000 0065 // Noise Canceler: Off
; 0000 0066 // Input Capture on Falling Edge
; 0000 0067 // Timer1 Overflow Interrupt: Off
; 0000 0068 // Input Capture Interrupt: Off
; 0000 0069 // Compare A Match Interrupt: Off
; 0000 006A // Compare B Match Interrupt: Off
; 0000 006B TCCR1A=(0<<COM1A1) | (0<<COM1A0) | (0<<COM1B1) | (0<<COM1B0) | (0<<WGM11) | (0<<WGM10);
	OUT  0x2F,R30
; 0000 006C TCCR1B=(0<<ICNC1) | (0<<ICES1) | (0<<WGM13) | (0<<WGM12) | (0<<CS12) | (0<<CS11) | (0<<CS10);
	OUT  0x2E,R30
; 0000 006D TCNT1H=0x00;
	OUT  0x2D,R30
; 0000 006E TCNT1L=0x00;
	OUT  0x2C,R30
; 0000 006F ICR1H=0x00;
	OUT  0x27,R30
; 0000 0070 ICR1L=0x00;
	OUT  0x26,R30
; 0000 0071 OCR1AH=0x00;
	OUT  0x2B,R30
; 0000 0072 OCR1AL=0x00;
	OUT  0x2A,R30
; 0000 0073 OCR1BH=0x00;
	OUT  0x29,R30
; 0000 0074 OCR1BL=0x00;
	OUT  0x28,R30
; 0000 0075 
; 0000 0076 // Timer/Counter 2 initialization
; 0000 0077 // Clock source: System Clock
; 0000 0078 // Clock value: Timer2 Stopped
; 0000 0079 // Mode: Normal top=0xFF
; 0000 007A // OC2 output: Disconnected
; 0000 007B ASSR=0<<AS2;
	OUT  0x22,R30
; 0000 007C TCCR2=(0<<PWM2) | (0<<COM21) | (0<<COM20) | (0<<CTC2) | (0<<CS22) | (0<<CS21) | (0<<CS20);
	OUT  0x25,R30
; 0000 007D TCNT2=0x00;
	OUT  0x24,R30
; 0000 007E OCR2=0x00;
	OUT  0x23,R30
; 0000 007F 
; 0000 0080 // Timer(s)/Counter(s) Interrupt(s) initialization
; 0000 0081 TIMSK=(0<<OCIE2) | (0<<TOIE2) | (0<<TICIE1) | (0<<OCIE1A) | (0<<OCIE1B) | (0<<TOIE1) | (0<<OCIE0) | (0<<TOIE0);
	OUT  0x39,R30
; 0000 0082 
; 0000 0083 // External Interrupt(s) initialization
; 0000 0084 // INT0: Off
; 0000 0085 // INT1: Off
; 0000 0086 // INT2: Off
; 0000 0087 MCUCR=(0<<ISC11) | (0<<ISC10) | (0<<ISC01) | (0<<ISC00);
	OUT  0x35,R30
; 0000 0088 MCUCSR=(0<<ISC2);
	OUT  0x34,R30
; 0000 0089 
; 0000 008A // USART initialization
; 0000 008B // USART disabled
; 0000 008C UCSRB=(0<<RXCIE) | (0<<TXCIE) | (0<<UDRIE) | (0<<RXEN) | (0<<TXEN) | (0<<UCSZ2) | (0<<RXB8) | (0<<TXB8);
	OUT  0xA,R30
; 0000 008D 
; 0000 008E // Analog Comparator initialization
; 0000 008F // Analog Comparator: Off
; 0000 0090 // The Analog Comparator's positive input is
; 0000 0091 // connected to the AIN0 pin
; 0000 0092 // The Analog Comparator's negative input is
; 0000 0093 // connected to the AIN1 pin
; 0000 0094 ACSR=(1<<ACD) | (0<<ACBG) | (0<<ACO) | (0<<ACI) | (0<<ACIE) | (0<<ACIC) | (0<<ACIS1) | (0<<ACIS0);
	LDI  R30,LOW(128)
	OUT  0x8,R30
; 0000 0095 SFIOR=(0<<ACME);
	LDI  R30,LOW(0)
	OUT  0x30,R30
; 0000 0096 
; 0000 0097 // ADC initialization
; 0000 0098 // ADC disabled
; 0000 0099 ADCSRA=(0<<ADEN) | (0<<ADSC) | (0<<ADATE) | (0<<ADIF) | (0<<ADIE) | (0<<ADPS2) | (0<<ADPS1) | (0<<ADPS0);
	OUT  0x6,R30
; 0000 009A 
; 0000 009B // SPI initialization
; 0000 009C // SPI disabled
; 0000 009D SPCR=(0<<SPIE) | (0<<SPE) | (0<<DORD) | (0<<MSTR) | (0<<CPOL) | (0<<CPHA) | (0<<SPR1) | (0<<SPR0);
	OUT  0xD,R30
; 0000 009E 
; 0000 009F // TWI initialization
; 0000 00A0 // TWI disabled
; 0000 00A1 TWCR=(0<<TWEA) | (0<<TWSTA) | (0<<TWSTO) | (0<<TWEN) | (0<<TWIE);
	OUT  0x36,R30
; 0000 00A2 
; 0000 00A3 // Alphanumeric LCD initialization
; 0000 00A4 // Connections are specified in the
; 0000 00A5 // Project|Configure|C Compiler|Libraries|Alphanumeric LCD menu:
; 0000 00A6 // RS - PORTC Bit 0
; 0000 00A7 // RD - PORTC Bit 1
; 0000 00A8 // EN - PORTC Bit 2
; 0000 00A9 // D4 - PORTC Bit 4
; 0000 00AA // D5 - PORTC Bit 5
; 0000 00AB // D6 - PORTC Bit 6
; 0000 00AC // D7 - PORTC Bit 7
; 0000 00AD // Characters/line: 40
; 0000 00AE 
; 0000 00AF PORTC=0x00;
	OUT  0x15,R30
; 0000 00B0 DDRC=0xF7;
	LDI  R30,LOW(247)
	OUT  0x14,R30
; 0000 00B1 ADMUX=TEMPERATURE_LEVEL_SENSOR & 0xff;
	LDI  R30,LOW(192)
	OUT  0x7,R30
; 0000 00B2 ADCSRA=0x83;
	LDI  R30,LOW(131)
	OUT  0x6,R30
; 0000 00B3 lcd_init(40);
	LDI  R26,LOW(40)
	RCALL _lcd_init
; 0000 00B4 
; 0000 00B5 
; 0000 00B6 while (1)
_0x6:
; 0000 00B7       {
; 0000 00B8 
; 0000 00B9       if (PINA.1 <= 0 || read_temperature(0)/4<40)
	CALL SUBOPT_0x0
	BRLO _0xA
	LDI  R26,LOW(0)
	RCALL _read_temperature
	CALL __LSRW2
	SBIW R30,40
	BRSH _0x9
_0xA:
; 0000 00BA        {
; 0000 00BB         PORTD.0 = 0;
	CBI  0x12,0
; 0000 00BC         lcd_clear();
	CALL SUBOPT_0x1
; 0000 00BD         lcd_gotoxy(0, 1);
; 0000 00BE         lcd_puts("Error");
	__POINTW2MN _0xE,0
	RCALL _lcd_puts
; 0000 00BF         delay_ms(200);
	LDI  R26,LOW(200)
	LDI  R27,0
	CALL _delay_ms
; 0000 00C0        }
; 0000 00C1 
; 0000 00C2       else
	RJMP _0xF
_0x9:
; 0000 00C3       {
; 0000 00C4        delay_ms(500);
	CALL SUBOPT_0x2
; 0000 00C5        lcd_clear();
	CALL SUBOPT_0x1
; 0000 00C6        lcd_gotoxy(0, 1);
; 0000 00C7        lcd_puts("Press 1 or 2 or 3");
	__POINTW2MN _0xE,6
	RCALL _lcd_puts
; 0000 00C8         delay_ms(500);
	CALL SUBOPT_0x2
; 0000 00C9 
; 0000 00CA         while(!(PINB.0||PINB.1||PINB.2));
_0x10:
	SBIC 0x16,0
	RJMP _0x13
	SBIC 0x16,1
	RJMP _0x13
	SBIS 0x16,2
	RJMP _0x14
_0x13:
	RJMP _0x12
_0x14:
	RJMP _0x10
_0x12:
; 0000 00CB 
; 0000 00CC       if(PINB.0 >=1)
	LDI  R26,0
	SBIC 0x16,0
	LDI  R26,1
	CPI  R26,LOW(0x1)
	BRLO _0x15
; 0000 00CD       {
; 0000 00CE       process_cycle(1000,10000,5000,1000,"water", "Washing", "Drying","water evaction");
	CALL SUBOPT_0x3
	LDI  R30,LOW(10000)
	LDI  R31,HIGH(10000)
	ST   -Y,R31
	ST   -Y,R30
	CALL SUBOPT_0x4
	CALL SUBOPT_0x3
	__POINTW1MN _0xE,24
	ST   -Y,R31
	ST   -Y,R30
	__POINTW1MN _0xE,30
	ST   -Y,R31
	ST   -Y,R30
	__POINTW1MN _0xE,38
	ST   -Y,R31
	ST   -Y,R30
	__POINTW2MN _0xE,45
	RCALL _process_cycle
; 0000 00CF       break;
	RJMP _0x8
; 0000 00D0       }
; 0000 00D1 
; 0000 00D2       if(PINB.1 >=1)
_0x15:
	LDI  R26,0
	SBIC 0x16,1
	LDI  R26,1
	CPI  R26,LOW(0x1)
	BRLO _0x16
; 0000 00D3       {
; 0000 00D4        process_cycle(1000,5000,2000,3000,"water", "Washing", "Drying","water evaction");
	CALL SUBOPT_0x3
	CALL SUBOPT_0x4
	LDI  R30,LOW(2000)
	LDI  R31,HIGH(2000)
	ST   -Y,R31
	ST   -Y,R30
	LDI  R30,LOW(3000)
	LDI  R31,HIGH(3000)
	ST   -Y,R31
	ST   -Y,R30
	__POINTW1MN _0xE,60
	ST   -Y,R31
	ST   -Y,R30
	__POINTW1MN _0xE,66
	ST   -Y,R31
	ST   -Y,R30
	__POINTW1MN _0xE,74
	ST   -Y,R31
	ST   -Y,R30
	__POINTW2MN _0xE,81
	RCALL _process_cycle
; 0000 00D5        break;
	RJMP _0x8
; 0000 00D6        }
; 0000 00D7        if(PINB.2 >=1)
_0x16:
	LDI  R26,0
	SBIC 0x16,2
	LDI  R26,1
	CPI  R26,LOW(0x1)
	BRLO _0x17
; 0000 00D8        {
; 0000 00D9        process_cycle(1000,5000,3000,1000,"water", "Washing", "Drying","water evaction");
	CALL SUBOPT_0x3
	CALL SUBOPT_0x4
	LDI  R30,LOW(3000)
	LDI  R31,HIGH(3000)
	ST   -Y,R31
	ST   -Y,R30
	CALL SUBOPT_0x3
	__POINTW1MN _0xE,96
	ST   -Y,R31
	ST   -Y,R30
	__POINTW1MN _0xE,102
	ST   -Y,R31
	ST   -Y,R30
	__POINTW1MN _0xE,110
	ST   -Y,R31
	ST   -Y,R30
	__POINTW2MN _0xE,117
	RCALL _process_cycle
; 0000 00DA        break;
	RJMP _0x8
; 0000 00DB        }
; 0000 00DC        }
_0x17:
_0xF:
; 0000 00DD 
; 0000 00DE        lcd_clear();
	RCALL _lcd_clear
; 0000 00DF        delay_ms(500);
	CALL SUBOPT_0x2
; 0000 00E0 
; 0000 00E1        }
	RJMP _0x6
_0x8:
; 0000 00E2 
; 0000 00E3 }
_0x18:
	RJMP _0x18
; .FEND

	.DSEG
_0xE:
	.BYTE 0x84
;
;void process_cycle(int water_duration,int motor_duration,int drying_duration,int water_evaction,const char* water_messag ...
; 0000 00E6 {

	.CSEG
_process_cycle:
; .FSTART _process_cycle
; 0000 00E7      a=read_temperature(0);
	ST   -Y,R27
	ST   -Y,R26
;	water_duration -> Y+14
;	motor_duration -> Y+12
;	drying_duration -> Y+10
;	water_evaction -> Y+8
;	*water_message -> Y+6
;	*washing_message -> Y+4
;	*drying_message -> Y+2
;	*water_evaction_message -> Y+0
	CALL SUBOPT_0x5
; 0000 00E8 
; 0000 00E9     if(PINA.1>=1 && a/4>=40)
	BRLO _0x1A
	CALL SUBOPT_0x6
	BRSH _0x1B
_0x1A:
	RJMP _0x19
_0x1B:
; 0000 00EA     {
; 0000 00EB             lcd_clear();
	CALL SUBOPT_0x1
; 0000 00EC             lcd_gotoxy(0,1);
; 0000 00ED             lcd_puts(water_message);
	LDD  R26,Y+6
	LDD  R27,Y+6+1
	RCALL _lcd_puts
; 0000 00EE             PORTD.1 =1;
	SBI  0x12,1
; 0000 00EF             delay_ms(water_duration);
	LDD  R26,Y+14
	LDD  R27,Y+14+1
	CALL SUBOPT_0x7
; 0000 00F0        for ( i = 0; i <water_duration / 1000; ++i)
_0x1F:
	LDD  R26,Y+14
	LDD  R27,Y+14+1
	CALL SUBOPT_0x8
	BRGE _0x20
; 0000 00F1        {
; 0000 00F2         a = read_temperature(0);
	CALL SUBOPT_0x5
; 0000 00F3 
; 0000 00F4         if (PINA.1 <= 0 || a / 4 < 40)
	BRLO _0x22
	CALL SUBOPT_0x6
	BRSH _0x21
_0x22:
; 0000 00F5         {
; 0000 00F6 
; 0000 00F7             lcd_clear();
	CALL SUBOPT_0x1
; 0000 00F8             lcd_gotoxy(0, 1);
; 0000 00F9             lcd_puts("Error");
	__POINTW2MN _0x24,0
	RCALL _lcd_puts
; 0000 00FA             PORTD.0 = 0;
	CBI  0x12,0
; 0000 00FB             return;
	RJMP _0x2080002
; 0000 00FC         }
; 0000 00FD 
; 0000 00FE         delay_ms(100);
_0x21:
	CALL SUBOPT_0x9
; 0000 00FF         }
	MOVW R30,R6
	ADIW R30,1
	MOVW R6,R30
	RJMP _0x1F
_0x20:
; 0000 0100 
; 0000 0101             lcd_clear();
	CALL SUBOPT_0x1
; 0000 0102             lcd_gotoxy(0, 1);
; 0000 0103             lcd_puts(washing_message);
	LDD  R26,Y+4
	LDD  R27,Y+4+1
	RCALL _lcd_puts
; 0000 0104             PORTD.0 = 1;
	SBI  0x12,0
; 0000 0105             PORTD.1 = 0;
	CBI  0x12,1
; 0000 0106             delay_ms(motor_duration);
	LDD  R26,Y+12
	LDD  R27,Y+12+1
	CALL SUBOPT_0x7
; 0000 0107 
; 0000 0108        for ( i = 0; i < motor_duration / 1000; ++i)
_0x2C:
	LDD  R26,Y+12
	LDD  R27,Y+12+1
	CALL SUBOPT_0x8
	BRGE _0x2D
; 0000 0109        {
; 0000 010A         a = read_temperature(0);
	CALL SUBOPT_0x5
; 0000 010B 
; 0000 010C         if (PINA.1 <= 0 || a / 4 < 40)
	BRLO _0x2F
	CALL SUBOPT_0x6
	BRSH _0x2E
_0x2F:
; 0000 010D         {
; 0000 010E 
; 0000 010F             lcd_clear();
	CALL SUBOPT_0x1
; 0000 0110             lcd_gotoxy(0, 1);
; 0000 0111             lcd_puts("Error");
	__POINTW2MN _0x24,6
	RCALL _lcd_puts
; 0000 0112             PORTD.0 = 0;
	CBI  0x12,0
; 0000 0113             return;
	RJMP _0x2080002
; 0000 0114         }
; 0000 0115 
; 0000 0116         delay_ms(100);
_0x2E:
	CALL SUBOPT_0x9
; 0000 0117         }
	MOVW R30,R6
	ADIW R30,1
	MOVW R6,R30
	RJMP _0x2C
_0x2D:
; 0000 0118 
; 0000 0119 
; 0000 011A             lcd_clear();
	CALL SUBOPT_0x1
; 0000 011B             lcd_gotoxy(0, 1);
; 0000 011C             lcd_puts(drying_message);
	LDD  R26,Y+2
	LDD  R27,Y+2+1
	RCALL _lcd_puts
; 0000 011D             delay_ms(drying_duration);
	LDD  R26,Y+10
	LDD  R27,Y+10+1
	CALL SUBOPT_0x7
; 0000 011E 
; 0000 011F         for ( i = 0; i <drying_duration  / 1000; ++i)
_0x34:
	LDD  R26,Y+10
	LDD  R27,Y+10+1
	CALL SUBOPT_0x8
	BRGE _0x35
; 0000 0120        {
; 0000 0121         a = read_temperature(0);
	CALL SUBOPT_0x5
; 0000 0122 
; 0000 0123         if (PINA.1 <= 0 || a / 4 < 40)
	BRLO _0x37
	CALL SUBOPT_0x6
	BRSH _0x36
_0x37:
; 0000 0124         {
; 0000 0125 
; 0000 0126             lcd_clear();
	CALL SUBOPT_0x1
; 0000 0127             lcd_gotoxy(0, 1);
; 0000 0128             lcd_puts("Error");
	__POINTW2MN _0x24,12
	RCALL _lcd_puts
; 0000 0129             PORTD.0 = 0;
	CBI  0x12,0
; 0000 012A             return;
	RJMP _0x2080002
; 0000 012B         }
; 0000 012C 
; 0000 012D         delay_ms(100);
_0x36:
	CALL SUBOPT_0x9
; 0000 012E         }
	MOVW R30,R6
	ADIW R30,1
	MOVW R6,R30
	RJMP _0x34
_0x35:
; 0000 012F             lcd_clear();
	CALL SUBOPT_0x1
; 0000 0130             lcd_gotoxy(0,1);
; 0000 0131             lcd_puts(water_evaction_message);
	LD   R26,Y
	LDD  R27,Y+1
	RCALL _lcd_puts
; 0000 0132             PORTD.2 =1;
	SBI  0x12,2
; 0000 0133             delay_ms(water_evaction);
	LDD  R26,Y+8
	LDD  R27,Y+8+1
	CALL SUBOPT_0x7
; 0000 0134        for ( i = 0; i <water_evaction / 1000; ++i)
_0x3E:
	LDD  R26,Y+8
	LDD  R27,Y+8+1
	CALL SUBOPT_0x8
	BRGE _0x3F
; 0000 0135        {
; 0000 0136         a = read_temperature(0);
	CALL SUBOPT_0x5
; 0000 0137 
; 0000 0138         if (PINA.1 <= 0 || a / 4 < 40)
	BRLO _0x41
	CALL SUBOPT_0x6
	BRSH _0x40
_0x41:
; 0000 0139         {
; 0000 013A 
; 0000 013B             lcd_clear();
	CALL SUBOPT_0x1
; 0000 013C             lcd_gotoxy(0, 1);
; 0000 013D             lcd_puts("Error");
	__POINTW2MN _0x24,18
	RCALL _lcd_puts
; 0000 013E             PORTD.0 = 0;
	CBI  0x12,0
; 0000 013F             return;
	RJMP _0x2080002
; 0000 0140         }
; 0000 0141 
; 0000 0142         delay_ms(100);
_0x40:
	CALL SUBOPT_0x9
; 0000 0143         }
	MOVW R30,R6
	ADIW R30,1
	MOVW R6,R30
	RJMP _0x3E
_0x3F:
; 0000 0144 
; 0000 0145 
; 0000 0146 
; 0000 0147          PORTD.0 = 0;
	CBI  0x12,0
; 0000 0148          PORTD.2 =0;
	CBI  0x12,2
; 0000 0149         delay_ms(500);
	CALL SUBOPT_0x2
; 0000 014A        lcd_clear();
	CALL SUBOPT_0x1
; 0000 014B        lcd_gotoxy(0, 1);
; 0000 014C        lcd_puts("Press 1 or 2 or 3");
	__POINTW2MN _0x24,24
	RCALL _lcd_puts
; 0000 014D        delay_ms(500);
	CALL SUBOPT_0x2
; 0000 014E 
; 0000 014F     }
; 0000 0150 
; 0000 0151 
; 0000 0152 
; 0000 0153 }
_0x19:
_0x2080002:
	ADIW R28,16
	RET
; .FEND

	.DSEG
_0x24:
	.BYTE 0x2A
	#ifndef __SLEEP_DEFINED__
	#define __SLEEP_DEFINED__
	.EQU __se_bit=0x80
	.EQU __sm_mask=0x70
	.EQU __sm_powerdown=0x20
	.EQU __sm_powersave=0x30
	.EQU __sm_standby=0x60
	.EQU __sm_ext_standby=0x70
	.EQU __sm_adc_noise_red=0x10
	.SET power_ctrl_reg=mcucr
	#endif

	.DSEG

	.CSEG
__lcd_write_nibble_G100:
; .FSTART __lcd_write_nibble_G100
	ST   -Y,R26
	IN   R30,0x15
	ANDI R30,LOW(0xF)
	MOV  R26,R30
	LD   R30,Y
	ANDI R30,LOW(0xF0)
	OR   R30,R26
	OUT  0x15,R30
	__DELAY_USB 13
	SBI  0x15,2
	__DELAY_USB 13
	CBI  0x15,2
	__DELAY_USB 13
	RJMP _0x2080001
; .FEND
__lcd_write_data:
; .FSTART __lcd_write_data
	ST   -Y,R26
	LD   R26,Y
	RCALL __lcd_write_nibble_G100
    ld    r30,y
    swap  r30
    st    y,r30
	LD   R26,Y
	RCALL __lcd_write_nibble_G100
	__DELAY_USB 133
	RJMP _0x2080001
; .FEND
_lcd_gotoxy:
; .FSTART _lcd_gotoxy
	ST   -Y,R26
	LD   R30,Y
	LDI  R31,0
	SUBI R30,LOW(-__base_y_G100)
	SBCI R31,HIGH(-__base_y_G100)
	LD   R30,Z
	LDD  R26,Y+1
	ADD  R26,R30
	RCALL __lcd_write_data
	LDD  R9,Y+1
	LDD  R8,Y+0
	ADIW R28,2
	RET
; .FEND
_lcd_clear:
; .FSTART _lcd_clear
	LDI  R26,LOW(2)
	CALL SUBOPT_0xA
	LDI  R26,LOW(12)
	RCALL __lcd_write_data
	LDI  R26,LOW(1)
	CALL SUBOPT_0xA
	LDI  R30,LOW(0)
	MOV  R8,R30
	MOV  R9,R30
	RET
; .FEND
_lcd_putchar:
; .FSTART _lcd_putchar
	ST   -Y,R26
	LD   R26,Y
	CPI  R26,LOW(0xA)
	BREQ _0x2000005
	CP   R9,R11
	BRLO _0x2000004
_0x2000005:
	LDI  R30,LOW(0)
	ST   -Y,R30
	INC  R8
	MOV  R26,R8
	RCALL _lcd_gotoxy
	LD   R26,Y
	CPI  R26,LOW(0xA)
	BRNE _0x2000007
	RJMP _0x2080001
_0x2000007:
_0x2000004:
	INC  R9
	SBI  0x15,0
	LD   R26,Y
	RCALL __lcd_write_data
	CBI  0x15,0
	RJMP _0x2080001
; .FEND
_lcd_puts:
; .FSTART _lcd_puts
	ST   -Y,R27
	ST   -Y,R26
	ST   -Y,R17
_0x2000008:
	LDD  R26,Y+1
	LDD  R27,Y+1+1
	LD   R30,X+
	STD  Y+1,R26
	STD  Y+1+1,R27
	MOV  R17,R30
	CPI  R30,0
	BREQ _0x200000A
	MOV  R26,R17
	RCALL _lcd_putchar
	RJMP _0x2000008
_0x200000A:
	LDD  R17,Y+0
	ADIW R28,3
	RET
; .FEND
_lcd_init:
; .FSTART _lcd_init
	ST   -Y,R26
	IN   R30,0x14
	ORI  R30,LOW(0xF0)
	OUT  0x14,R30
	SBI  0x14,2
	SBI  0x14,0
	SBI  0x14,1
	CBI  0x15,2
	CBI  0x15,0
	CBI  0x15,1
	LDD  R11,Y+0
	LD   R30,Y
	SUBI R30,-LOW(128)
	__PUTB1MN __base_y_G100,2
	LD   R30,Y
	SUBI R30,-LOW(192)
	__PUTB1MN __base_y_G100,3
	LDI  R26,LOW(20)
	LDI  R27,0
	CALL _delay_ms
	CALL SUBOPT_0xB
	CALL SUBOPT_0xB
	CALL SUBOPT_0xB
	LDI  R26,LOW(32)
	RCALL __lcd_write_nibble_G100
	__DELAY_USW 200
	LDI  R26,LOW(40)
	RCALL __lcd_write_data
	LDI  R26,LOW(4)
	RCALL __lcd_write_data
	LDI  R26,LOW(133)
	RCALL __lcd_write_data
	LDI  R26,LOW(6)
	RCALL __lcd_write_data
	RCALL _lcd_clear
_0x2080001:
	ADIW R28,1
	RET
; .FEND
	#ifndef __SLEEP_DEFINED__
	#define __SLEEP_DEFINED__
	.EQU __se_bit=0x80
	.EQU __sm_mask=0x70
	.EQU __sm_powerdown=0x20
	.EQU __sm_powersave=0x30
	.EQU __sm_standby=0x60
	.EQU __sm_ext_standby=0x70
	.EQU __sm_adc_noise_red=0x10
	.SET power_ctrl_reg=mcucr
	#endif

	.CSEG

	.CSEG

	.CSEG

	.DSEG
__base_y_G100:
	.BYTE 0x4

	.CSEG
;OPTIMIZER ADDED SUBROUTINE, CALLED 6 TIMES, CODE SIZE REDUCTION:7 WORDS
SUBOPT_0x0:
	LDI  R26,0
	SBIC 0x19,1
	LDI  R26,1
	CPI  R26,LOW(0x1)
	RET

;OPTIMIZER ADDED SUBROUTINE, CALLED 11 TIMES, CODE SIZE REDUCTION:47 WORDS
SUBOPT_0x1:
	CALL _lcd_clear
	LDI  R30,LOW(0)
	ST   -Y,R30
	LDI  R26,LOW(1)
	JMP  _lcd_gotoxy

;OPTIMIZER ADDED SUBROUTINE, CALLED 5 TIMES, CODE SIZE REDUCTION:5 WORDS
SUBOPT_0x2:
	LDI  R26,LOW(500)
	LDI  R27,HIGH(500)
	JMP  _delay_ms

;OPTIMIZER ADDED SUBROUTINE, CALLED 5 TIMES, CODE SIZE REDUCTION:5 WORDS
SUBOPT_0x3:
	LDI  R30,LOW(1000)
	LDI  R31,HIGH(1000)
	ST   -Y,R31
	ST   -Y,R30
	RET

;OPTIMIZER ADDED SUBROUTINE, CALLED 3 TIMES, CODE SIZE REDUCTION:1 WORDS
SUBOPT_0x4:
	LDI  R30,LOW(5000)
	LDI  R31,HIGH(5000)
	ST   -Y,R31
	ST   -Y,R30
	RET

;OPTIMIZER ADDED SUBROUTINE, CALLED 5 TIMES, CODE SIZE REDUCTION:13 WORDS
SUBOPT_0x5:
	LDI  R26,LOW(0)
	CALL _read_temperature
	MOVW R4,R30
	RJMP SUBOPT_0x0

;OPTIMIZER ADDED SUBROUTINE, CALLED 5 TIMES, CODE SIZE REDUCTION:5 WORDS
SUBOPT_0x6:
	MOVW R30,R4
	CALL __LSRW2
	SBIW R30,40
	RET

;OPTIMIZER ADDED SUBROUTINE, CALLED 4 TIMES, CODE SIZE REDUCTION:3 WORDS
SUBOPT_0x7:
	CALL _delay_ms
	CLR  R6
	CLR  R7
	RET

;OPTIMIZER ADDED SUBROUTINE, CALLED 4 TIMES, CODE SIZE REDUCTION:9 WORDS
SUBOPT_0x8:
	LDI  R30,LOW(1000)
	LDI  R31,HIGH(1000)
	CALL __DIVW21
	CP   R6,R30
	CPC  R7,R31
	RET

;OPTIMIZER ADDED SUBROUTINE, CALLED 4 TIMES, CODE SIZE REDUCTION:3 WORDS
SUBOPT_0x9:
	LDI  R26,LOW(100)
	LDI  R27,0
	JMP  _delay_ms

;OPTIMIZER ADDED SUBROUTINE, CALLED 2 TIMES, CODE SIZE REDUCTION:1 WORDS
SUBOPT_0xA:
	CALL __lcd_write_data
	LDI  R26,LOW(3)
	LDI  R27,0
	JMP  _delay_ms

;OPTIMIZER ADDED SUBROUTINE, CALLED 3 TIMES, CODE SIZE REDUCTION:7 WORDS
SUBOPT_0xB:
	LDI  R26,LOW(48)
	CALL __lcd_write_nibble_G100
	__DELAY_USW 200
	RET


	.CSEG
_delay_ms:
	adiw r26,0
	breq __delay_ms1
__delay_ms0:
	__DELAY_USW 0x7D0
	wdr
	sbiw r26,1
	brne __delay_ms0
__delay_ms1:
	ret

__ANEGW1:
	NEG  R31
	NEG  R30
	SBCI R31,0
	RET

__LSRW2:
	LSR  R31
	ROR  R30
	LSR  R31
	ROR  R30
	RET

__DIVW21U:
	CLR  R0
	CLR  R1
	LDI  R25,16
__DIVW21U1:
	LSL  R26
	ROL  R27
	ROL  R0
	ROL  R1
	SUB  R0,R30
	SBC  R1,R31
	BRCC __DIVW21U2
	ADD  R0,R30
	ADC  R1,R31
	RJMP __DIVW21U3
__DIVW21U2:
	SBR  R26,1
__DIVW21U3:
	DEC  R25
	BRNE __DIVW21U1
	MOVW R30,R26
	MOVW R26,R0
	RET

__DIVW21:
	RCALL __CHKSIGNW
	RCALL __DIVW21U
	BRTC __DIVW211
	RCALL __ANEGW1
__DIVW211:
	RET

__CHKSIGNW:
	CLT
	SBRS R31,7
	RJMP __CHKSW1
	RCALL __ANEGW1
	SET
__CHKSW1:
	SBRS R27,7
	RJMP __CHKSW2
	COM  R26
	COM  R27
	ADIW R26,1
	BLD  R0,0
	INC  R0
	BST  R0,0
__CHKSW2:
	RET

;END OF CODE MARKER
__END_OF_CODE:
